target datalayout = "e-m:e-p270:32:32-p271:32:32-p272:64:64-i64:64-i128:128-f80:128-n8:16:32:64-S128"
target triple = "x86_64-pc-linux-gnu"

%"struct.gmx::GridPoint" = type { [4 x double], [4 x i32], %"class.std::vector.5" }
%"class.std::vector.5" = type { %"struct.std::_Vector_base.6" }
%"struct.std::_Vector_base.6" = type { %"struct.std::_Vector_base<int, std::allocator<int>>::_Vector_impl" }
%"struct.std::_Vector_base<int, std::allocator<int>>::_Vector_impl" = type { %"struct.std::_Vector_base<int, std::allocator<int>>::_Vector_impl_data" }
%"struct.std::_Vector_base<int, std::allocator<int>>::_Vector_impl_data" = type { ptr, ptr, ptr }
%"class.gmx::BiasGrid" = type { %"class.std::vector", %"class.std::vector.0" }
%"class.std::vector" = type { %"struct.std::_Vector_base" }
%"struct.std::_Vector_base" = type { %"struct.std::_Vector_base<gmx::GridPoint, std::allocator<gmx::GridPoint>>::_Vector_impl" }
%"struct.std::_Vector_base<gmx::GridPoint, std::allocator<gmx::GridPoint>>::_Vector_impl" = type { %"struct.std::_Vector_base<gmx::GridPoint, std::allocator<gmx::GridPoint>>::_Vector_impl_data" }
%"struct.std::_Vector_base<gmx::GridPoint, std::allocator<gmx::GridPoint>>::_Vector_impl_data" = type { ptr, ptr, ptr }
%"class.std::vector.0" = type { %"struct.std::_Vector_base.1" }
%"struct.std::_Vector_base.1" = type { %"struct.std::_Vector_base<gmx::GridAxis, std::allocator<gmx::GridAxis>>::_Vector_impl" }
%"struct.std::_Vector_base<gmx::GridAxis, std::allocator<gmx::GridAxis>>::_Vector_impl" = type { %"struct.std::_Vector_base<gmx::GridAxis, std::allocator<gmx::GridAxis>>::_Vector_impl_data" }
%"struct.std::_Vector_base<gmx::GridAxis, std::allocator<gmx::GridAxis>>::_Vector_impl_data" = type { ptr, ptr, ptr }
%"class.gmx::GridAxis" = type <{ double, double, double, double, i32, i32, i8, [7 x i8] }>

; Function Attrs: mustprogress nounwind uwtable
define internal noundef double @_ZN3gmx12_GLOBAL__N_129centerPeriodicValueAroundZeroEdd(double noundef %0, double noundef %1) #1 {
  %3 = alloca double, align 8
  %4 = alloca double, align 8
  %5 = alloca double, align 8
  %6 = alloca double, align 8
  store double %0, ptr %3, align 8
  store double %1, ptr %4, align 8
  %7 = load double, ptr %4, align 8
  %8 = fmul double %7, 5.000000e-01
  store double %8, ptr %5, align 8
  %9 = load double, ptr %3, align 8
  store double %9, ptr %6, align 8
  %10 = load double, ptr %6, align 8
  %11 = load double, ptr %5, align 8
  %12 = fcmp oge double %10, %11
  br i1 %12, label %13, label %17

13:                                               ; preds = %2
  %14 = load double, ptr %4, align 8
  %15 = load double, ptr %6, align 8
  %16 = fsub double %15, %14
  store double %16, ptr %6, align 8
  br label %27

17:                                               ; preds = %2
  %18 = load double, ptr %6, align 8
  %19 = load double, ptr %5, align 8
  %20 = fneg double %19
  %21 = fcmp olt double %18, %20
  br i1 %21, label %22, label %26

22:                                               ; preds = %17
  %23 = load double, ptr %4, align 8
  %24 = load double, ptr %6, align 8
  %25 = fadd double %24, %23
  store double %25, ptr %6, align 8
  br label %26

26:                                               ; preds = %22, %17
  br label %27

27:                                               ; preds = %26, %13
  %28 = load double, ptr %6, align 8
  ret double %28
}

; Function Attrs: mustprogress nounwind uwtable
define linkonce_odr noundef nonnull align 8 dereferenceable(41) ptr @_ZNKSt6vectorIN3gmx8GridAxisESaIS1_EEixEm(ptr noundef nonnull align 8 dereferenceable(24) %0, i64 noundef %1) #1 comdat align 2 {
  %3 = alloca ptr, align 8
  %4 = alloca i64, align 8
  store ptr %0, ptr %3, align 8
  store i64 %1, ptr %4, align 8
  %5 = load ptr, ptr %3, align 8
  %6 = getelementptr inbounds %"struct.std::_Vector_base.1", ptr %5, i32 0, i32 0
  %7 = getelementptr inbounds %"struct.std::_Vector_base<gmx::GridAxis, std::allocator<gmx::GridAxis>>::_Vector_impl_data", ptr %6, i32 0, i32 0
  %8 = load ptr, ptr %7, align 8
  %9 = load i64, ptr %4, align 8
  %10 = getelementptr inbounds %"class.gmx::GridAxis", ptr %8, i64 %9
  ret ptr %10
}

; Function Attrs: mustprogress nounwind uwtable
define linkonce_odr noundef nonnull align 8 dereferenceable(72) ptr @_ZNKSt6vectorIN3gmx9GridPointESaIS1_EEixEm(ptr noundef nonnull align 8 dereferenceable(24) %0, i64 noundef %1) #1 comdat align 2 {
  %3 = alloca ptr, align 8
  %4 = alloca i64, align 8
  store ptr %0, ptr %3, align 8
  store i64 %1, ptr %4, align 8
  %5 = load ptr, ptr %3, align 8
  %6 = getelementptr inbounds %"struct.std::_Vector_base", ptr %5, i32 0, i32 0
  %7 = getelementptr inbounds %"struct.std::_Vector_base<gmx::GridPoint, std::allocator<gmx::GridPoint>>::_Vector_impl_data", ptr %6, i32 0, i32 0
  %8 = load ptr, ptr %7, align 8
  %9 = load i64, ptr %4, align 8
  %10 = getelementptr inbounds %"struct.gmx::GridPoint", ptr %8, i64 %9
  ret ptr %10
}

; Function Attrs: mustprogress uwtable
define internal noundef double @_ZN3gmx12_GLOBAL__N_120getDeviationPeriodicEddd(double noundef %0, double noundef %1, double noundef %2) #0 {
  %4 = alloca double, align 8
  %5 = alloca double, align 8
  %6 = alloca double, align 8
  %7 = alloca double, align 8
  store double %0, ptr %4, align 8
  store double %1, ptr %5, align 8
  store double %2, ptr %6, align 8
  %8 = load double, ptr %4, align 8
  %9 = load double, ptr %5, align 8
  %10 = fsub double %8, %9
  store double %10, ptr %7, align 8
  %11 = load double, ptr %6, align 8
  %12 = fcmp ogt double %11, 0.000000e+00
  br i1 %12, label %13, label %17

13:                                               ; preds = %3
  %14 = load double, ptr %7, align 8
  %15 = load double, ptr %6, align 8
  %16 = call noundef double @_ZN3gmx12_GLOBAL__N_129centerPeriodicValueAroundZeroEdd(double noundef %14, double noundef %15)
  store double %16, ptr %7, align 8
  br label %17

17:                                               ; preds = %13, %3
  %18 = load double, ptr %7, align 8
  ret double %18
}

; Function Attrs: mustprogress nounwind uwtable
define linkonce_odr noundef double @_ZNK3gmx8GridAxis6periodEv(ptr noundef nonnull align 8 dereferenceable(41) %0) #1 comdat align 2 {
  %2 = alloca ptr, align 8
  store ptr %0, ptr %2, align 8
  %3 = load ptr, ptr %2, align 8
  %4 = getelementptr inbounds %"class.gmx::GridAxis", ptr %3, i32 0, i32 2
  %5 = load double, ptr %4, align 8
  ret double %5
}

; Function Attrs: mustprogress nounwind uwtable
define linkonce_odr noundef nonnull align 8 dereferenceable(41) ptr @_ZNK3gmx8BiasGrid4axisEi(ptr noundef nonnull align 8 dereferenceable(48) %0, i32 noundef %1) #1 comdat align 2 {
  %3 = alloca ptr, align 8
  %4 = alloca i32, align 4
  store ptr %0, ptr %3, align 8
  store i32 %1, ptr %4, align 4
  %5 = load ptr, ptr %3, align 8
  %6 = getelementptr inbounds %"class.gmx::BiasGrid", ptr %5, i32 0, i32 1
  %7 = load i32, ptr %4, align 4
  %8 = sext i32 %7 to i64
  %9 = call noundef nonnull align 8 dereferenceable(41) ptr @_ZNKSt6vectorIN3gmx8GridAxisESaIS1_EEixEm(ptr noundef nonnull align 8 dereferenceable(24) %6, i64 noundef %8) #12
  ret ptr %9
}

; Function Attrs: mustprogress nounwind uwtable
define linkonce_odr noundef nonnull align 8 dereferenceable(72) ptr @_ZNK3gmx8BiasGrid5pointEm(ptr noundef nonnull align 8 dereferenceable(48) %0, i64 noundef %1) #1 comdat align 2 {
  %3 = alloca ptr, align 8
  %4 = alloca i64, align 8
  store ptr %0, ptr %3, align 8
  store i64 %1, ptr %4, align 8
  %5 = load ptr, ptr %3, align 8
  %6 = getelementptr inbounds %"class.gmx::BiasGrid", ptr %5, i32 0, i32 0
  %7 = load i64, ptr %4, align 8
  %8 = call noundef nonnull align 8 dereferenceable(72) ptr @_ZNKSt6vectorIN3gmx9GridPointESaIS1_EEixEm(ptr noundef nonnull align 8 dereferenceable(24) %6, i64 noundef %7) #12
  ret ptr %8
}

; Function Attrs: mustprogress uwtable
define noundef double @_ZN3gmx34getDeviationFromPointAlongGridAxisERKNS_8BiasGridEiii(ptr noundef nonnull align 8 dereferenceable(48) %0, i32 noundef %1, i32 noundef %2, i32 noundef %3) #0 {
  %5 = alloca ptr, align 8
  %6 = alloca i32, align 4
  %7 = alloca i32, align 4
  %8 = alloca i32, align 4
  %9 = alloca double, align 8
  %10 = alloca double, align 8
  store ptr %0, ptr %5, align 8
  store i32 %1, ptr %6, align 4
  store i32 %2, ptr %7, align 4
  store i32 %3, ptr %8, align 4
  %11 = load ptr, ptr %5, align 8
  %12 = load i32, ptr %7, align 4
  %13 = sext i32 %12 to i64
  %14 = call noundef nonnull align 8 dereferenceable(72) ptr @_ZNK3gmx8BiasGrid5pointEm(ptr noundef nonnull align 8 dereferenceable(48) %11, i64 noundef %13)
  %15 = getelementptr inbounds %"struct.gmx::GridPoint", ptr %14, i32 0, i32 0
  %16 = load i32, ptr %6, align 4
  %17 = sext i32 %16 to i64
  %18 = getelementptr inbounds [4 x double], ptr %15, i64 0, i64 %17
  %19 = load double, ptr %18, align 8
  store double %19, ptr %9, align 8
  %20 = load ptr, ptr %5, align 8
  %21 = load i32, ptr %8, align 4
  %22 = sext i32 %21 to i64
  %23 = call noundef nonnull align 8 dereferenceable(72) ptr @_ZNK3gmx8BiasGrid5pointEm(ptr noundef nonnull align 8 dereferenceable(48) %20, i64 noundef %22)
  %24 = getelementptr inbounds %"struct.gmx::GridPoint", ptr %23, i32 0, i32 0
  %25 = load i32, ptr %6, align 4
  %26 = sext i32 %25 to i64
  %27 = getelementptr inbounds [4 x double], ptr %24, i64 0, i64 %26
  %28 = load double, ptr %27, align 8
  store double %28, ptr %10, align 8
  %29 = load double, ptr %9, align 8
  %30 = load double, ptr %10, align 8
  %31 = load ptr, ptr %5, align 8
  %32 = load i32, ptr %6, align 4
  %33 = call noundef nonnull align 8 dereferenceable(41) ptr @_ZNK3gmx8BiasGrid4axisEi(ptr noundef nonnull align 8 dereferenceable(48) %31, i32 noundef %32)
  %34 = call noundef double @_ZNK3gmx8GridAxis6periodEv(ptr noundef nonnull align 8 dereferenceable(41) %33)
  %35 = call noundef double @_ZN3gmx12_GLOBAL__N_120getDeviationPeriodicEddd(double noundef %29, double noundef %30, double noundef %34)
  ret double %35
}