; Function Attrs: mustprogress nofree norecurse nosync nounwind willreturn memory(read, inaccessiblemem: none) uwtable
define noundef double @_ZN3gmx34getDeviationFromPointAlongGridAxisERKNS_8BiasGridEiii(ptr nocapture noundef nonnull readonly align 8 dereferenceable(48) %0, i32 noundef %1, i32 noundef %2, i32 noundef %3) local_unnamed_addr #0 {
  %5 = sext i32 %2 to i64
  %6 = load ptr, ptr %0, align 8
  %7 = getelementptr inbounds %"struct.gmx::GridPoint", ptr %6, i64 %5
  %8 = sext i32 %1 to i64
  %9 = getelementptr inbounds [4 x double], ptr %7, i64 0, i64 %8
  %10 = load double, ptr %9, align 8
  %11 = sext i32 %3 to i64
  %12 = getelementptr inbounds %"struct.gmx::GridPoint", ptr %6, i64 %11
  %13 = getelementptr inbounds [4 x double], ptr %12, i64 0, i64 %8
  %14 = load double, ptr %13, align 8
  %15 = getelementptr inbounds i8, ptr %0, i64 24
  %16 = load ptr, ptr %15, align 8
  %17 = getelementptr inbounds %"class.gmx::GridAxis", ptr %16, i64 %8, i32 2
  %18 = load double, ptr %17, align 8
  %19 = fsub double %10, %14
  %20 = fcmp ogt double %18, 0.000000e+00
  br i1 %20, label %21, label %_ZN3gmx12_GLOBAL__N_120getDeviationPeriodicEddd.exit

21:                                               ; preds = %4
  %22 = fmul double %18, 5.000000e-01
  %23 = fcmp ugt double %22, %19
  br i1 %23, label %26, label %24

24:                                               ; preds = %21
  %25 = fsub double %19, %18
  br label %_ZN3gmx12_GLOBAL__N_120getDeviationPeriodicEddd.exit

26:                                               ; preds = %21
  %27 = fneg double %22
  %28 = fcmp olt double %19, %27
  br i1 %28, label %29, label %_ZN3gmx12_GLOBAL__N_120getDeviationPeriodicEddd.exit

29:                                               ; preds = %26
  %30 = fadd double %19, %18
  br label %_ZN3gmx12_GLOBAL__N_120getDeviationPeriodicEddd.exit

_ZN3gmx12_GLOBAL__N_120getDeviationPeriodicEddd.exit: ; preds = %4, %24, %26, %29
  %.0.i = phi double [ %19, %4 ], [ %25, %24 ], [ %30, %29 ], [ %19, %26 ]
  ret double %.0.i
}